target datalayout = "e-m:e-p270:32:32-p271:32:32-p272:64:64-i64:64-i128:128-f80:128-n8:16:32:64-S128"
target triple = "x86_64-pc-linux-gnu"

%struct.Ndr_Data_t_ = type { i32, i32, ptr, ptr }

; Function Attrs: inlinehint nounwind uwtable
define internal i32 @Ndr_DataSize(ptr noundef %0, i32 noundef %1) #4 {
  %3 = alloca ptr, align 8
  %4 = alloca i32, align 4
  store ptr %0, ptr %3, align 8, !tbaa !29
  store i32 %1, ptr %4, align 4, !tbaa !3
  %5 = load ptr, ptr %3, align 8, !tbaa !29
  %6 = load i32, ptr %4, align 4, !tbaa !3
  %7 = call i32 @Ndr_DataType(ptr noundef %5, i32 noundef %6)
  %8 = icmp sgt i32 %7, 3
  br i1 %8, label %9, label %10

9:                                                ; preds = %2
  br label %18

10:                                               ; preds = %2
  %11 = load ptr, ptr %3, align 8, !tbaa !29
  %12 = getelementptr inbounds nuw %struct.Ndr_Data_t_, ptr %11, i32 0, i32 3
  %13 = load ptr, ptr %12, align 8, !tbaa !35
  %14 = load i32, ptr %4, align 4, !tbaa !3
  %15 = sext i32 %14 to i64
  %16 = getelementptr inbounds i32, ptr %13, i64 %15
  %17 = load i32, ptr %16, align 4, !tbaa !3
  br label %18

18:                                               ; preds = %10, %9
  %19 = phi i32 [ 1, %9 ], [ %17, %10 ]
  ret i32 %19
}

; Function Attrs: inlinehint nounwind uwtable
define internal i32 @Ndr_DataType(ptr noundef %0, i32 noundef %1) #4 {
  %3 = alloca ptr, align 8
  %4 = alloca i32, align 4
  store ptr %0, ptr %3, align 8, !tbaa !29
  store i32 %1, ptr %4, align 4, !tbaa !3
  %5 = load ptr, ptr %3, align 8, !tbaa !29
  %6 = getelementptr inbounds nuw %struct.Ndr_Data_t_, ptr %5, i32 0, i32 2
  %7 = load ptr, ptr %6, align 8, !tbaa !34
  %8 = load i32, ptr %4, align 4, !tbaa !3
  %9 = sext i32 %8 to i64
  %10 = getelementptr inbounds i8, ptr %7, i64 %9
  %11 = load i8, ptr %10, align 1, !tbaa !10
  %12 = zext i8 %11 to i32
  ret i32 %12
}

; Function Attrs: inlinehint nounwind uwtable
define internal i32 @Ndr_DataEnd(ptr noundef %0, i32 noundef %1) #4 {
  %3 = alloca ptr, align 8
  %4 = alloca i32, align 4
  store ptr %0, ptr %3, align 8, !tbaa !29
  store i32 %1, ptr %4, align 4, !tbaa !3
  %5 = load i32, ptr %4, align 4, !tbaa !3
  %6 = load ptr, ptr %3, align 8, !tbaa !29
  %7 = getelementptr inbounds nuw %struct.Ndr_Data_t_, ptr %6, i32 0, i32 3
  %8 = load ptr, ptr %7, align 8, !tbaa !35
  %9 = load i32, ptr %4, align 4, !tbaa !3
  %10 = sext i32 %9 to i64
  %11 = getelementptr inbounds i32, ptr %8, i64 %10
  %12 = load i32, ptr %11, align 4, !tbaa !3
  %13 = add i32 %5, %12
  ret i32 %13
}

; Function Attrs: inlinehint nounwind uwtable
define internal i32 @Ndr_ObjReadArray(ptr noundef %0, i32 noundef %1, i32 noundef %2, ptr noundef %3) #4 {
  %5 = alloca i32, align 4
  %6 = alloca ptr, align 8
  %7 = alloca i32, align 4
  %8 = alloca i32, align 4
  %9 = alloca ptr, align 8
  %10 = alloca i32, align 4
  %11 = alloca i32, align 4
  %12 = alloca i32, align 4
  store ptr %0, ptr %6, align 8, !tbaa !29
  store i32 %1, ptr %7, align 4, !tbaa !3
  store i32 %2, ptr %8, align 4, !tbaa !3
  store ptr %3, ptr %9, align 8, !tbaa !56
  call void @llvm.lifetime.start.p0(i64 4, ptr %10) #11
  call void @llvm.lifetime.start.p0(i64 4, ptr %11) #11
  store i32 0, ptr %11, align 4, !tbaa !3
  %13 = load ptr, ptr %9, align 8, !tbaa !56
  store ptr null, ptr %13, align 8, !tbaa !7
  %14 = load i32, ptr %7, align 4, !tbaa !3
  %15 = add nsw i32 %14, 1
  store i32 %15, ptr %10, align 4, !tbaa !3
  br label %16

16:                                               ; preds = %51, %4
  %17 = load i32, ptr %10, align 4, !tbaa !3
  %18 = load ptr, ptr %6, align 8, !tbaa !29
  %19 = load i32, ptr %7, align 4, !tbaa !3
  %20 = call i32 @Ndr_DataEnd(ptr noundef %18, i32 noundef %19)
  %21 = icmp slt i32 %17, %20
  br i1 %21, label %22, label %57

22:                                               ; preds = %16
  %23 = load ptr, ptr %6, align 8, !tbaa !29
  %24 = load i32, ptr %10, align 4, !tbaa !3
  %25 = call i32 @Ndr_DataType(ptr noundef %23, i32 noundef %24)
  %26 = load i32, ptr %8, align 4, !tbaa !3
  %27 = icmp eq i32 %25, %26
  br i1 %27, label %28, label %43

28:                                               ; preds = %22
  %29 = load i32, ptr %11, align 4, !tbaa !3
  %30 = add nsw i32 %29, 1
  store i32 %30, ptr %11, align 4, !tbaa !3
  %31 = load ptr, ptr %9, align 8, !tbaa !56
  %32 = load ptr, ptr %31, align 8, !tbaa !7
  %33 = icmp eq ptr %32, null
  br i1 %33, label %34, label %42

34:                                               ; preds = %28
  %35 = load ptr, ptr %6, align 8, !tbaa !29
  %36 = getelementptr inbounds nuw %struct.Ndr_Data_t_, ptr %35, i32 0, i32 3
  %37 = load ptr, ptr %36, align 8, !tbaa !35
  %38 = load i32, ptr %10, align 4, !tbaa !3
  %39 = sext i32 %38 to i64
  %40 = getelementptr inbounds i32, ptr %37, i64 %39
  %41 = load ptr, ptr %9, align 8, !tbaa !56
  store ptr %40, ptr %41, align 8, !tbaa !7
  br label %42

42:                                               ; preds = %34, %28
  br label %50

43:                                               ; preds = %22
  %44 = load ptr, ptr %9, align 8, !tbaa !56
  %45 = load ptr, ptr %44, align 8, !tbaa !7
  %46 = icmp ne ptr %45, null
  br i1 %46, label %47, label %49

47:                                               ; preds = %43
  %48 = load i32, ptr %11, align 4, !tbaa !3
  store i32 %48, ptr %5, align 4
  store i32 1, ptr %12, align 4
  br label %59

49:                                               ; preds = %43
  br label %50

50:                                               ; preds = %49, %42
  br label %51

51:                                               ; preds = %50
  %52 = load ptr, ptr %6, align 8, !tbaa !29
  %53 = load i32, ptr %10, align 4, !tbaa !3
  %54 = call i32 @Ndr_DataSize(ptr noundef %52, i32 noundef %53)
  %55 = load i32, ptr %10, align 4, !tbaa !3
  %56 = add nsw i32 %55, %54
  store i32 %56, ptr %10, align 4, !tbaa !3
  br label %16, !llvm.loop !58

57:                                               ; preds = %16
  %58 = load i32, ptr %11, align 4, !tbaa !3
  store i32 %58, ptr %5, align 4
  store i32 1, ptr %12, align 4
  br label %59

59:                                               ; preds = %57, %47
  call void @llvm.lifetime.end.p0(i64 4, ptr %11) #11
  call void @llvm.lifetime.end.p0(i64 4, ptr %10) #11
  %60 = load i32, ptr %5, align 4
  ret i32 %60
}

; Function Attrs: nounwind uwtable
define i32 @Ndr_ObjReadRange(ptr noundef %0, i32 noundef %1, ptr noundef %2, ptr noundef %3) #0 {
  %5 = alloca i32, align 4
  %6 = alloca ptr, align 8
  %7 = alloca i32, align 4
  %8 = alloca ptr, align 8
  %9 = alloca ptr, align 8
  %10 = alloca ptr, align 8
  %11 = alloca i32, align 4
  %12 = alloca i32, align 4
  %13 = alloca i32, align 4
  store ptr %0, ptr %6, align 8, !tbaa !29
  store i32 %1, ptr %7, align 4, !tbaa !3
  store ptr %2, ptr %8, align 8, !tbaa !7
  store ptr %3, ptr %9, align 8, !tbaa !7
  call void @llvm.lifetime.start.p0(i64 8, ptr %10) #11
  call void @llvm.lifetime.start.p0(i64 4, ptr %11) #11
  %14 = load ptr, ptr %6, align 8, !tbaa !29
  %15 = load i32, ptr %7, align 4, !tbaa !3
  %16 = call i32 @Ndr_ObjReadArray(ptr noundef %14, i32 noundef %15, i32 noundef 8, ptr noundef %10)
  store i32 %16, ptr %11, align 4, !tbaa !3
  call void @llvm.lifetime.start.p0(i64 4, ptr %12) #11
  store i32 0, ptr %12, align 4, !tbaa !3
  %17 = load ptr, ptr %9, align 8, !tbaa !7
  store i32 0, ptr %17, align 4, !tbaa !3
  %18 = load ptr, ptr %8, align 8, !tbaa !7
  store i32 0, ptr %18, align 4, !tbaa !3
  %19 = load i32, ptr %11, align 4, !tbaa !3
  %20 = icmp eq i32 %19, 0
  br i1 %20, label %21, label %22

21:                                               ; preds = %4
  store i32 0, ptr %5, align 4
  store i32 1, ptr %13, align 4
  br label %46

22:                                               ; preds = %4
  %23 = load i32, ptr %11, align 4, !tbaa !3
  %24 = icmp eq i32 %23, 3
  br i1 %24, label %25, label %26

25:                                               ; preds = %22
  store i32 1, ptr %12, align 4, !tbaa !3
  br label %26

26:                                               ; preds = %25, %22
  %27 = load i32, ptr %11, align 4, !tbaa !3
  %28 = icmp eq i32 %27, 1
  br i1 %28, label %29, label %35

29:                                               ; preds = %26
  %30 = load ptr, ptr %10, align 8, !tbaa !7
  %31 = getelementptr inbounds i32, ptr %30, i64 0
  %32 = load i32, ptr %31, align 4, !tbaa !3
  %33 = load ptr, ptr %9, align 8, !tbaa !7
  store i32 %32, ptr %33, align 4, !tbaa !3
  %34 = load ptr, ptr %8, align 8, !tbaa !7
  store i32 %32, ptr %34, align 4, !tbaa !3
  br label %44

35:                                               ; preds = %26
  %36 = load ptr, ptr %10, align 8, !tbaa !7
  %37 = getelementptr inbounds i32, ptr %36, i64 0
  %38 = load i32, ptr %37, align 4, !tbaa !3
  %39 = load ptr, ptr %8, align 8, !tbaa !7
  store i32 %38, ptr %39, align 4, !tbaa !3
  %40 = load ptr, ptr %10, align 8, !tbaa !7
  %41 = getelementptr inbounds i32, ptr %40, i64 1
  %42 = load i32, ptr %41, align 4, !tbaa !3
  %43 = load ptr, ptr %9, align 8, !tbaa !7
  store i32 %42, ptr %43, align 4, !tbaa !3
  br label %44

44:                                               ; preds = %35, %29
  %45 = load i32, ptr %12, align 4, !tbaa !3
  store i32 %45, ptr %5, align 4
  store i32 1, ptr %13, align 4
  br label %46

46:                                               ; preds = %44, %21
  call void @llvm.lifetime.end.p0(i64 4, ptr %12) #11
  call void @llvm.lifetime.end.p0(i64 4, ptr %11) #11
  call void @llvm.lifetime.end.p0(i64 8, ptr %10) #11
  %47 = load i32, ptr %5, align 4
  ret i32 %47
}