; Function Attrs: nofree norecurse nosync nounwind memory(read, argmem: readwrite, inaccessiblemem: none) uwtable
define range(i32 0, 2) i32 @Ndr_ObjReadRange(ptr noundef readonly captures(none) %0, i32 noundef %1, ptr noundef writeonly captures(none) %2, ptr noundef writeonly captures(none) %3) local_unnamed_addr #11 {
  %5 = add nsw i32 %1, 1
  %6 = getelementptr i8, ptr %0, i64 16
  %7 = sext i32 %1 to i64
  %.val2122.i = load ptr, ptr %6, align 8, !tbaa !16
  %8 = getelementptr inbounds i32, ptr %.val2122.i, i64 %7
  %9 = load i32, ptr %8, align 4, !tbaa !3
  %10 = add i32 %9, %1
  %11 = icmp slt i32 %5, %10
  br i1 %11, label %.lr.ph.i, label %Ndr_ObjReadArray.exit.thread

Ndr_ObjReadArray.exit.thread:                     ; preds = %4
  store i32 0, ptr %3, align 4, !tbaa !3
  store i32 0, ptr %2, align 4, !tbaa !3
  br label %41

.lr.ph.i:                                         ; preds = %4
  %12 = getelementptr i8, ptr %0, i64 8
  %.val.i = load ptr, ptr %12, align 8, !tbaa !15
  br label %13

13:                                               ; preds = %Ndr_DataSize.exit.i, %.lr.ph.i
  %.015 = phi ptr [ null, %.lr.ph.i ], [ %.124, %Ndr_DataSize.exit.i ]
  %14 = phi ptr [ null, %.lr.ph.i ], [ %32, %Ndr_DataSize.exit.i ]
  %15 = phi ptr [ null, %.lr.ph.i ], [ %31, %Ndr_DataSize.exit.i ]
  %.024.i = phi i32 [ 0, %.lr.ph.i ], [ %.1.i25, %Ndr_DataSize.exit.i ]
  %.01923.i = phi i32 [ %5, %.lr.ph.i ], [ %34, %Ndr_DataSize.exit.i ]
  %16 = sext i32 %.01923.i to i64
  %17 = getelementptr inbounds i8, ptr %.val.i, i64 %16
  %18 = load i8, ptr %17, align 1, !tbaa !7
  %19 = icmp eq i8 %18, 8
  br i1 %19, label %20, label %25

20:                                               ; preds = %13
  %21 = add nsw i32 %.024.i, 1
  %22 = icmp eq ptr %14, null
  br i1 %22, label %23, label %Ndr_DataSize.exit.i

23:                                               ; preds = %20
  %24 = getelementptr inbounds i32, ptr %.val2122.i, i64 %16
  br label %Ndr_DataSize.exit.i

25:                                               ; preds = %13
  %.not.i = icmp eq ptr %15, null
  br i1 %.not.i, label %26, label %Ndr_ObjReadArray.exit

26:                                               ; preds = %25
  %27 = icmp ugt i8 %18, 3
  br i1 %27, label %Ndr_DataSize.exit.i, label %28

28:                                               ; preds = %26
  %29 = getelementptr inbounds i32, ptr %.val2122.i, i64 %16
  %30 = load i32, ptr %29, align 4, !tbaa !3
  br label %Ndr_DataSize.exit.i

Ndr_DataSize.exit.i:                              ; preds = %20, %23, %28, %26
  %.1.i25 = phi i32 [ %.024.i, %28 ], [ %.024.i, %26 ], [ %21, %23 ], [ %21, %20 ]
  %31 = phi ptr [ null, %28 ], [ null, %26 ], [ %24, %23 ], [ %14, %20 ]
  %32 = phi ptr [ %14, %28 ], [ %14, %26 ], [ %24, %23 ], [ %14, %20 ]
  %.124 = phi ptr [ %.015, %28 ], [ %.015, %26 ], [ %24, %23 ], [ %.015, %20 ]
  %33 = phi i32 [ %30, %28 ], [ 1, %26 ], [ 1, %23 ], [ 1, %20 ]
  %34 = add nsw i32 %33, %.01923.i
  %35 = icmp slt i32 %34, %10
  br i1 %35, label %13, label %Ndr_ObjReadArray.exit, !llvm.loop !49

Ndr_ObjReadArray.exit:                            ; preds = %25, %Ndr_DataSize.exit.i
  %.2 = phi ptr [ %.124, %Ndr_DataSize.exit.i ], [ %.015, %25 ]
  %.0.lcssa.i = phi i32 [ %.1.i25, %Ndr_DataSize.exit.i ], [ %.024.i, %25 ]
  store i32 0, ptr %3, align 4, !tbaa !3
  store i32 0, ptr %2, align 4, !tbaa !3
  switch i32 %.0.lcssa.i, label %.thread.fold.split [
    i32 0, label %41
    i32 3, label %.thread
    i32 1, label %36
  ]

36:                                               ; preds = %Ndr_ObjReadArray.exit
  %37 = load i32, ptr %.2, align 4, !tbaa !3
  store i32 %37, ptr %3, align 4, !tbaa !3
  store i32 %37, ptr %2, align 4, !tbaa !3
  br label %41

.thread.fold.split:                               ; preds = %Ndr_ObjReadArray.exit
  br label %.thread

.thread:                                          ; preds = %Ndr_ObjReadArray.exit, %.thread.fold.split
  %.019 = phi i32 [ 1, %Ndr_ObjReadArray.exit ], [ 0, %.thread.fold.split ]
  %38 = load i32, ptr %.2, align 4, !tbaa !3
  store i32 %38, ptr %2, align 4, !tbaa !3
  %39 = getelementptr inbounds nuw i8, ptr %.2, i64 4
  %40 = load i32, ptr %39, align 4, !tbaa !3
  store i32 %40, ptr %3, align 4, !tbaa !3
  br label %41

41:                                               ; preds = %Ndr_ObjReadArray.exit, %Ndr_ObjReadArray.exit.thread, %36, %.thread
  %.012 = phi i32 [ %.0.lcssa.i, %Ndr_ObjReadArray.exit ], [ %.019, %.thread ], [ 0, %36 ], [ 0, %Ndr_ObjReadArray.exit.thread ]
  ret i32 %.012
}